; Function Attrs: mustprogress nounwind uwtable
define hidden void @_ZN10RegSpiller12pd_store_regEP14MacroAssembleri9VMStorage(ptr noundef %0, i32 noundef %1, i64 %2) local_unnamed_addr #2 align 2 {
  %4 = alloca %class.Address, align 16
  %5 = alloca %class.Address, align 16
  %.sroa.0.0.extract.trunc = trunc i64 %2 to i8
  switch i8 %.sroa.0.0.extract.trunc, label %18 [
    i8 0, label %6
    i8 1, label %12
  ]

6:                                                ; preds = %3
  store <4 x i32> <i32 4, i32 -1, i32 -1, i32 -1>, ptr %4, align 16
  %7 = getelementptr inbounds i8, ptr %4, i64 16
  store i32 %1, ptr %7, align 16
  %8 = getelementptr inbounds i8, ptr %4, i64 20
  store i8 0, ptr %8, align 4
  %9 = getelementptr inbounds i8, ptr %4, i64 24
  store ptr getelementptr inbounds inrange(-16, 72) (i8, ptr @_ZTV10Relocation, i64 16), ptr %9, align 8
  %10 = getelementptr inbounds i8, ptr %4, i64 32
  store ptr null, ptr %10, align 16
  %11 = getelementptr inbounds i8, ptr %4, i64 40
  store i32 0, ptr %11, align 8
  %.sroa.1.0.extract.shift.i = lshr i64 %2, 32
  %.sroa.1.0.extract.trunc.i = trunc nuw i64 %.sroa.1.0.extract.shift.i to i32
  %or.cond.i.i = icmp ult i64 %2, 137438953472
  %spec.select.i.i = select i1 %or.cond.i.i, i32 %.sroa.1.0.extract.trunc.i, i32 -1
  call void @_ZN14MacroAssembler6movptrE7Address8Register(ptr noundef nonnull align 8 dereferenceable(40) %0, ptr noundef nonnull %4, i32 %spec.select.i.i) #9
  br label %18

12:                                               ; preds = %3
  store <4 x i32> <i32 4, i32 -1, i32 -1, i32 -1>, ptr %5, align 16
  %13 = getelementptr inbounds i8, ptr %5, i64 16
  store i32 %1, ptr %13, align 16
  %14 = getelementptr inbounds i8, ptr %5, i64 20
  store i8 0, ptr %14, align 4
  %15 = getelementptr inbounds i8, ptr %5, i64 24
  store ptr getelementptr inbounds inrange(-16, 72) (i8, ptr @_ZTV10Relocation, i64 16), ptr %15, align 8
  %16 = getelementptr inbounds i8, ptr %5, i64 32
  store ptr null, ptr %16, align 16
  %17 = getelementptr inbounds i8, ptr %5, i64 40
  store i32 0, ptr %17, align 8
  %.sroa.1.0.extract.shift.i8 = lshr i64 %2, 32
  %.sroa.1.0.extract.trunc.i9 = trunc nuw i64 %.sroa.1.0.extract.shift.i8 to i32
  %or.cond.i.i10 = icmp ult i64 %2, 137438953472
  %spec.select.i.i11 = select i1 %or.cond.i.i10, i32 %.sroa.1.0.extract.trunc.i9, i32 -1
  call void @_ZN14MacroAssembler6movdquE7Address11XMMRegister(ptr noundef nonnull align 8 dereferenceable(40) %0, ptr noundef nonnull %5, i32 %spec.select.i.i11) #9
  br label %18

18:                                               ; preds = %3, %12, %6
  ret void
}